target datalayout = "e-m:e-p270:32:32-p271:32:32-p272:64:64-i64:64-i128:128-f80:128-n8:16:32:64-S128"
target triple = "x86_64-pc-linux-gnu"

%"class.boost::urls::url_view_base" = type { [8 x i8], %"struct.boost::urls::detail::url_impl", ptr }
%"struct.boost::urls::detail::url_impl" = type <{ ptr, [8 x i64], [7 x i64], i64, i64, [16 x i8], i16, [2 x i8], i32, i16, i8, [5 x i8] }>

; Function Attrs: mustprogress nounwind uwtable
define void @_ZN5boost4urls8url_viewC2ERKNS0_13url_view_baseE(ptr noundef nonnull align 8 dereferenceable(192) %0, ptr noundef nonnull align 8 dereferenceable(192) %1) unnamed_addr #2 align 2 {
  %3 = alloca ptr, align 8
  %4 = alloca ptr, align 8
  store ptr %0, ptr %3, align 8, !tbaa !7
  store ptr %1, ptr %4, align 8, !tbaa !7
  %5 = load ptr, ptr %3, align 8
  %6 = load ptr, ptr %4, align 8, !tbaa !7
  %7 = getelementptr inbounds nuw %"class.boost::urls::url_view_base", ptr %6, i32 0, i32 1
  call void @_ZN5boost4urls13url_view_baseC2ERKNS0_6detail8url_implE(ptr noundef nonnull align 8 dereferenceable(192) %5, ptr noundef nonnull align 8 dereferenceable(171) %7) #15
  %8 = load ptr, ptr %4, align 8, !tbaa !7
  %9 = getelementptr inbounds nuw %"class.boost::urls::url_view_base", ptr %8, i32 0, i32 2
  %10 = load ptr, ptr %9, align 8, !tbaa !24
  %11 = getelementptr inbounds nuw %"struct.boost::urls::detail::url_impl", ptr %10, i32 0, i32 10
  %12 = load i8, ptr %11, align 2, !tbaa !31
  %13 = icmp eq i8 %12, 1
  br i1 %13, label %14, label %19

14:                                               ; preds = %2
  %15 = load ptr, ptr %4, align 8, !tbaa !7
  %16 = getelementptr inbounds nuw %"class.boost::urls::url_view_base", ptr %15, i32 0, i32 2
  %17 = load ptr, ptr %16, align 8, !tbaa !24
  %18 = getelementptr inbounds nuw %"class.boost::urls::url_view_base", ptr %5, i32 0, i32 2
  store ptr %17, ptr %18, align 8, !tbaa !24
  br label %25

19:                                               ; preds = %2
  %20 = load ptr, ptr %4, align 8, !tbaa !7
  %21 = getelementptr inbounds nuw %"class.boost::urls::url_view_base", ptr %20, i32 0, i32 1
  %22 = getelementptr inbounds nuw %"class.boost::urls::url_view_base", ptr %5, i32 0, i32 1
  call void @llvm.memcpy.p0.p0.i64(ptr align 8 %22, ptr align 8 %21, i64 171, i1 false)
  %23 = getelementptr inbounds nuw %"class.boost::urls::url_view_base", ptr %5, i32 0, i32 1
  %24 = getelementptr inbounds nuw %"class.boost::urls::url_view_base", ptr %5, i32 0, i32 2
  store ptr %23, ptr %24, align 8, !tbaa !24
  br label %25

25:                                               ; preds = %19, %14
  ret void
}