; Function Attrs: mustprogress nounwind uwtable
define void @_ZN5boost4urls8url_viewC2ERKNS0_13url_view_baseE(ptr noundef nonnull align 8 dereferenceable(192) %0, ptr noundef nonnull align 8 dereferenceable(192) %1) unnamed_addr #1 align 2 {
  %3 = getelementptr inbounds nuw i8, ptr %1, i64 8
  tail call void @_ZN5boost4urls13url_view_baseC2ERKNS0_6detail8url_implE(ptr noundef nonnull align 8 dereferenceable(192) %0, ptr noundef nonnull align 8 dereferenceable(171) %3) #17
  %4 = getelementptr inbounds nuw i8, ptr %1, i64 184
  %5 = load ptr, ptr %4, align 8, !tbaa !17
  %6 = getelementptr inbounds nuw i8, ptr %5, i64 170
  %7 = load i8, ptr %6, align 2, !tbaa !25
  %8 = icmp eq i8 %7, 1
  br i1 %8, label %11, label %9

9:                                                ; preds = %2
  %10 = getelementptr inbounds nuw i8, ptr %0, i64 8
  tail call void @llvm.memcpy.p0.p0.i64(ptr noundef nonnull align 8 dereferenceable(171) %10, ptr noundef nonnull align 8 dereferenceable(171) %3, i64 171, i1 false)
  br label %11

11:                                               ; preds = %2, %9
  %.sink = phi ptr [ %10, %9 ], [ %5, %2 ]
  %12 = getelementptr inbounds nuw i8, ptr %0, i64 184
  store ptr %.sink, ptr %12, align 8
  ret void
}